target datalayout = "e-m:e-p270:32:32-p271:32:32-p272:64:64-i64:64-i128:128-f80:128-n8:16:32:64-S128"
target triple = "x86_64-pc-linux-gnu"

%struct._value_string = type { i32, ptr }
%struct._packet_info = type { ptr, ptr, i32, i32, %struct.nstime_t, %struct.nstime_t, %struct.nstime_t, i8, ptr, ptr, ptr, ptr, %struct._address, %struct._address, %struct._address, %struct._address, %struct._address, %struct._address, i32, ptr, i8, [3 x i8], %struct.anon, i32, i32, i32, i32, ptr, i8, ptr, ptr, i16, i16, i32, i32, i16, i32, i32, ptr, ptr, ptr, i8, i8, i16, i16, i16, i32, i16, i16, ptr, ptr, ptr, ptr, ptr, i32, i32 }
%struct.nstime_t = type { i64, i32 }
%struct._address = type { i32, i32, ptr, ptr }
%struct.anon = type { i8, [3 x i8] }

@hf_cba_acco_count = internal global i32 0, align 4
@hf_cba_getconsconnout = internal global i32 0, align 4
@hf_cba_acco_conn_qos_type = internal global i32 0, align 4
@hf_cba_acco_conn_qos_value = internal global i32 0, align 4
@hf_cba_acco_conn_state = internal global i32 0, align 4
@hf_cba_acco_conn_provider = internal global i32 0, align 4
@hf_cba_acco_conn_provider_item = internal global i32 0, align 4
@hf_cba_acco_conn_consumer_item = internal global i32 0, align 4
@hf_cba_acco_conn_persist = internal global i32 0, align 4
@hf_cba_acco_conn_epsilon = internal global i32 0, align 4
@hf_cba_acco_conn_substitute = internal global i32 0, align 4
@ett_cba_getconnectionout = hidden global i32 0, align 4
@dcom_hresult_vals = external constant [0 x %struct._value_string], align 8
@.str.259 = private unnamed_addr constant [17 x i8] c"Unknown (0x%08x)\00", align 1
@.str.261 = private unnamed_addr constant [7 x i8] c" -> %s\00", align 1
@.str.269 = private unnamed_addr constant [9 x i8] c"[%u]: %s\00", align 1

; Function Attrs: null_pointer_is_valid sspstrong uwtable
define internal i32 @dissect_ICBAAccoMgt2_GetConsConnections_resp(ptr noundef %0, i32 noundef %1, ptr noundef %2, ptr noundef %3, ptr noundef %4, ptr noundef %5) #0 {
  %7 = alloca ptr, align 8
  %8 = alloca i32, align 4
  %9 = alloca ptr, align 8
  %10 = alloca ptr, align 8
  %11 = alloca ptr, align 8
  %12 = alloca ptr, align 8
  %13 = alloca i32, align 4
  %14 = alloca i32, align 4
  %15 = alloca i32, align 4
  %16 = alloca i32, align 4
  %17 = alloca i16, align 2
  %18 = alloca i16, align 2
  %19 = alloca i8, align 1
  %20 = alloca i16, align 2
  %21 = alloca i32, align 4
  %22 = alloca i32, align 4
  %23 = alloca i32, align 4
  %24 = alloca [1000 x i8], align 16
  %25 = alloca i32, align 4
  %26 = alloca [1000 x i8], align 16
  %27 = alloca i32, align 4
  %28 = alloca [1000 x i8], align 16
  %29 = alloca i32, align 4
  %30 = alloca ptr, align 8
  %31 = alloca ptr, align 8
  store ptr %0, ptr %7, align 8
  store i32 %1, ptr %8, align 4
  store ptr %2, ptr %9, align 8
  store ptr %3, ptr %10, align 8
  store ptr %4, ptr %11, align 8
  store ptr %5, ptr %12, align 8
  call void @llvm.lifetime.start.p0(i64 4, ptr %13) #12
  call void @llvm.lifetime.start.p0(i64 4, ptr %14) #12
  call void @llvm.lifetime.start.p0(i64 4, ptr %15) #12
  call void @llvm.lifetime.start.p0(i64 4, ptr %16) #12
  call void @llvm.lifetime.start.p0(i64 2, ptr %17) #12
  call void @llvm.lifetime.start.p0(i64 2, ptr %18) #12
  call void @llvm.lifetime.start.p0(i64 1, ptr %19) #12
  call void @llvm.lifetime.start.p0(i64 2, ptr %20) #12
  call void @llvm.lifetime.start.p0(i64 4, ptr %21) #12
  call void @llvm.lifetime.start.p0(i64 4, ptr %22) #12
  call void @llvm.lifetime.start.p0(i64 4, ptr %23) #12
  call void @llvm.lifetime.start.p0(i64 1000, ptr %24) #12
  call void @llvm.memset.p0.i64(ptr align 16 %24, i8 0, i64 1000, i1 false)
  call void @llvm.lifetime.start.p0(i64 4, ptr %25) #12
  store i32 1000, ptr %25, align 4
  call void @llvm.lifetime.start.p0(i64 1000, ptr %26) #12
  call void @llvm.memset.p0.i64(ptr align 16 %26, i8 0, i64 1000, i1 false)
  call void @llvm.lifetime.start.p0(i64 4, ptr %27) #12
  store i32 1000, ptr %27, align 4
  call void @llvm.lifetime.start.p0(i64 1000, ptr %28) #12
  call void @llvm.memset.p0.i64(ptr align 16 %28, i8 0, i64 1000, i1 false)
  call void @llvm.lifetime.start.p0(i64 4, ptr %29) #12
  store i32 1000, ptr %29, align 4
  %32 = load ptr, ptr %7, align 8
  %33 = load i32, ptr %8, align 4
  %34 = load ptr, ptr %9, align 8
  %35 = load ptr, ptr %10, align 8
  %36 = load ptr, ptr %11, align 8
  %37 = load ptr, ptr %12, align 8
  %38 = call i32 @dissect_dcom_that(ptr noundef %32, i32 noundef %33, ptr noundef %34, ptr noundef %35, ptr noundef %36, ptr noundef %37)
  store i32 %38, ptr %8, align 4
  %39 = load ptr, ptr %7, align 8
  %40 = load i32, ptr %8, align 4
  %41 = load ptr, ptr %9, align 8
  %42 = load ptr, ptr %10, align 8
  %43 = load ptr, ptr %11, align 8
  %44 = load ptr, ptr %12, align 8
  %45 = call i32 @dissect_dcom_dcerpc_pointer(ptr noundef %39, i32 noundef %40, ptr noundef %41, ptr noundef %42, ptr noundef %43, ptr noundef %44, ptr noundef %15)
  store i32 %45, ptr %8, align 4
  %46 = load i32, ptr %8, align 4
  store i32 %46, ptr %23, align 4
  %47 = load i32, ptr %15, align 4
  %48 = icmp ne i32 %47, 0
  br i1 %48, label %49, label %229

49:                                               ; preds = %6
  %50 = load ptr, ptr %7, align 8
  %51 = load i32, ptr %8, align 4
  %52 = load ptr, ptr %9, align 8
  %53 = load ptr, ptr %10, align 8
  %54 = load ptr, ptr %11, align 8
  %55 = load ptr, ptr %12, align 8
  %56 = load i32, ptr @hf_cba_acco_count, align 4
  %57 = call i32 @dissect_ndr_uint32(ptr noundef %50, i32 noundef %51, ptr noundef %52, ptr noundef %53, ptr noundef %54, ptr noundef %55, i32 noundef %56, ptr noundef %13)
  store i32 %57, ptr %8, align 4
  %58 = load i32, ptr %8, align 4
  %59 = load i32, ptr %13, align 4
  %60 = mul i32 %59, 32
  %61 = add i32 %58, %60
  store i32 %61, ptr %23, align 4
  %62 = load i32, ptr %13, align 4
  store i32 %62, ptr %14, align 4
  store i32 1, ptr %22, align 4
  br label %63

63:                                               ; preds = %177, %49
  %64 = load i32, ptr %14, align 4
  %65 = add i32 %64, -1
  store i32 %65, ptr %14, align 4
  %66 = icmp ne i32 %64, 0
  br i1 %66, label %67, label %228

67:                                               ; preds = %63
  call void @llvm.lifetime.start.p0(i64 8, ptr %30) #12
  call void @llvm.lifetime.start.p0(i64 8, ptr %31) #12
  %68 = load ptr, ptr %10, align 8
  %69 = load i32, ptr @hf_cba_getconsconnout, align 4
  %70 = load ptr, ptr %7, align 8
  %71 = load i32, ptr %8, align 4
  %72 = call ptr @proto_tree_add_item(ptr noundef %68, i32 noundef %69, ptr noundef %70, i32 noundef %71, i32 noundef 0, i32 noundef 0)
  store ptr %72, ptr %30, align 8
  %73 = load ptr, ptr %30, align 8
  %74 = load i32, ptr @ett_cba_getconnectionout, align 4
  %75 = call ptr @proto_item_add_subtree(ptr noundef %73, i32 noundef %74)
  store ptr %75, ptr %31, align 8
  %76 = load i32, ptr %8, align 4
  store i32 %76, ptr %21, align 4
  %77 = load ptr, ptr %7, align 8
  %78 = load i32, ptr %8, align 4
  %79 = load ptr, ptr %9, align 8
  %80 = load ptr, ptr %31, align 8
  %81 = load ptr, ptr %11, align 8
  %82 = load ptr, ptr %12, align 8
  %83 = call i32 @dissect_dcom_dcerpc_pointer(ptr noundef %77, i32 noundef %78, ptr noundef %79, ptr noundef %80, ptr noundef %81, ptr noundef %82, ptr noundef %15)
  store i32 %83, ptr %8, align 4
  %84 = load i32, ptr %15, align 4
  %85 = icmp ne i32 %84, 0
  br i1 %85, label %86, label %97

86:                                               ; preds = %67
  %87 = load ptr, ptr %7, align 8
  %88 = load i32, ptr %23, align 4
  %89 = load ptr, ptr %9, align 8
  %90 = load ptr, ptr %31, align 8
  %91 = load ptr, ptr %11, align 8
  %92 = load ptr, ptr %12, align 8
  %93 = load i32, ptr @hf_cba_acco_conn_provider, align 4
  %94 = getelementptr inbounds [1000 x i8], ptr %24, i64 0, i64 0
  %95 = load i32, ptr %25, align 4
  %96 = call i32 @dissect_dcom_LPWSTR(ptr noundef %87, i32 noundef %88, ptr noundef %89, ptr noundef %90, ptr noundef %91, ptr noundef %92, i32 noundef %93, ptr noundef %94, i32 noundef %95)
  store i32 %96, ptr %23, align 4
  br label %97

97:                                               ; preds = %86, %67
  %98 = load ptr, ptr %7, align 8
  %99 = load i32, ptr %8, align 4
  %100 = load ptr, ptr %9, align 8
  %101 = load ptr, ptr %31, align 8
  %102 = load ptr, ptr %11, align 8
  %103 = load ptr, ptr %12, align 8
  %104 = call i32 @dissect_dcom_dcerpc_pointer(ptr noundef %98, i32 noundef %99, ptr noundef %100, ptr noundef %101, ptr noundef %102, ptr noundef %103, ptr noundef %15)
  store i32 %104, ptr %8, align 4
  %105 = load i32, ptr %15, align 4
  %106 = icmp ne i32 %105, 0
  br i1 %106, label %107, label %118

107:                                              ; preds = %97
  %108 = load ptr, ptr %7, align 8
  %109 = load i32, ptr %23, align 4
  %110 = load ptr, ptr %9, align 8
  %111 = load ptr, ptr %31, align 8
  %112 = load ptr, ptr %11, align 8
  %113 = load ptr, ptr %12, align 8
  %114 = load i32, ptr @hf_cba_acco_conn_provider_item, align 4
  %115 = getelementptr inbounds [1000 x i8], ptr %26, i64 0, i64 0
  %116 = load i32, ptr %27, align 4
  %117 = call i32 @dissect_dcom_LPWSTR(ptr noundef %108, i32 noundef %109, ptr noundef %110, ptr noundef %111, ptr noundef %112, ptr noundef %113, i32 noundef %114, ptr noundef %115, i32 noundef %116)
  store i32 %117, ptr %23, align 4
  br label %118

118:                                              ; preds = %107, %97
  %119 = load ptr, ptr %7, align 8
  %120 = load i32, ptr %8, align 4
  %121 = load ptr, ptr %9, align 8
  %122 = load ptr, ptr %31, align 8
  %123 = load ptr, ptr %11, align 8
  %124 = load ptr, ptr %12, align 8
  %125 = call i32 @dissect_dcom_dcerpc_pointer(ptr noundef %119, i32 noundef %120, ptr noundef %121, ptr noundef %122, ptr noundef %123, ptr noundef %124, ptr noundef %15)
  store i32 %125, ptr %8, align 4
  %126 = load i32, ptr %15, align 4
  %127 = icmp ne i32 %126, 0
  br i1 %127, label %128, label %139

128:                                              ; preds = %118
  %129 = load ptr, ptr %7, align 8
  %130 = load i32, ptr %23, align 4
  %131 = load ptr, ptr %9, align 8
  %132 = load ptr, ptr %31, align 8
  %133 = load ptr, ptr %11, align 8
  %134 = load ptr, ptr %12, align 8
  %135 = load i32, ptr @hf_cba_acco_conn_consumer_item, align 4
  %136 = getelementptr inbounds [1000 x i8], ptr %28, i64 0, i64 0
  %137 = load i32, ptr %29, align 4
  %138 = call i32 @dissect_dcom_LPWSTR(ptr noundef %129, i32 noundef %130, ptr noundef %131, ptr noundef %132, ptr noundef %133, ptr noundef %134, i32 noundef %135, ptr noundef %136, i32 noundef %137)
  store i32 %138, ptr %23, align 4
  br label %139

139:                                              ; preds = %128, %118
  %140 = load ptr, ptr %7, align 8
  %141 = load i32, ptr %8, align 4
  %142 = load ptr, ptr %9, align 8
  %143 = load ptr, ptr %31, align 8
  %144 = load ptr, ptr %11, align 8
  %145 = load ptr, ptr %12, align 8
  %146 = call i32 @dissect_dcom_dcerpc_pointer(ptr noundef %140, i32 noundef %141, ptr noundef %142, ptr noundef %143, ptr noundef %144, ptr noundef %145, ptr noundef %15)
  store i32 %146, ptr %8, align 4
  %147 = load i32, ptr %15, align 4
  %148 = icmp ne i32 %147, 0
  br i1 %148, label %149, label %158

149:                                              ; preds = %139
  %150 = load ptr, ptr %7, align 8
  %151 = load i32, ptr %23, align 4
  %152 = load ptr, ptr %9, align 8
  %153 = load ptr, ptr %31, align 8
  %154 = load ptr, ptr %11, align 8
  %155 = load ptr, ptr %12, align 8
  %156 = load i32, ptr @hf_cba_acco_conn_substitute, align 4
  %157 = call i32 @dissect_dcom_VARIANT(ptr noundef %150, i32 noundef %151, ptr noundef %152, ptr noundef %153, ptr noundef %154, ptr noundef %155, i32 noundef %156)
  store i32 %157, ptr %23, align 4
  br label %158

158:                                              ; preds = %149, %139
  %159 = load ptr, ptr %7, align 8
  %160 = load i32, ptr %8, align 4
  %161 = load ptr, ptr %9, align 8
  %162 = load ptr, ptr %31, align 8
  %163 = load ptr, ptr %11, align 8
  %164 = load ptr, ptr %12, align 8
  %165 = call i32 @dissect_dcom_dcerpc_pointer(ptr noundef %159, i32 noundef %160, ptr noundef %161, ptr noundef %162, ptr noundef %163, ptr noundef %164, ptr noundef %15)
  store i32 %165, ptr %8, align 4
  %166 = load i32, ptr %15, align 4
  %167 = icmp ne i32 %166, 0
  br i1 %167, label %168, label %177

168:                                              ; preds = %158
  %169 = load ptr, ptr %7, align 8
  %170 = load i32, ptr %23, align 4
  %171 = load ptr, ptr %9, align 8
  %172 = load ptr, ptr %31, align 8
  %173 = load ptr, ptr %11, align 8
  %174 = load ptr, ptr %12, align 8
  %175 = load i32, ptr @hf_cba_acco_conn_epsilon, align 4
  %176 = call i32 @dissect_dcom_VARIANT(ptr noundef %169, i32 noundef %170, ptr noundef %171, ptr noundef %172, ptr noundef %173, ptr noundef %174, i32 noundef %175)
  store i32 %176, ptr %23, align 4
  br label %177

177:                                              ; preds = %168, %158
  %178 = load ptr, ptr %7, align 8
  %179 = load i32, ptr %8, align 4
  %180 = load ptr, ptr %9, align 8
  %181 = load ptr, ptr %31, align 8
  %182 = load ptr, ptr %11, align 8
  %183 = load ptr, ptr %12, align 8
  %184 = load i32, ptr @hf_cba_acco_conn_qos_type, align 4
  %185 = call i32 @dissect_ndr_uint16(ptr noundef %178, i32 noundef %179, ptr noundef %180, ptr noundef %181, ptr noundef %182, ptr noundef %183, i32 noundef %184, ptr noundef %17)
  store i32 %185, ptr %8, align 4
  %186 = load ptr, ptr %7, align 8
  %187 = load i32, ptr %8, align 4
  %188 = load ptr, ptr %9, align 8
  %189 = load ptr, ptr %31, align 8
  %190 = load ptr, ptr %11, align 8
  %191 = load ptr, ptr %12, align 8
  %192 = load i32, ptr @hf_cba_acco_conn_qos_value, align 4
  %193 = call i32 @dissect_ndr_uint16(ptr noundef %186, i32 noundef %187, ptr noundef %188, ptr noundef %189, ptr noundef %190, ptr noundef %191, i32 noundef %192, ptr noundef %18)
  store i32 %193, ptr %8, align 4
  %194 = load ptr, ptr %7, align 8
  %195 = load i32, ptr %8, align 4
  %196 = load ptr, ptr %9, align 8
  %197 = load ptr, ptr %31, align 8
  %198 = load ptr, ptr %11, align 8
  %199 = load ptr, ptr %12, align 8
  %200 = load i32, ptr @hf_cba_acco_conn_state, align 4
  %201 = call i32 @dissect_ndr_uint8(ptr noundef %194, i32 noundef %195, ptr noundef %196, ptr noundef %197, ptr noundef %198, ptr noundef %199, i32 noundef %200, ptr noundef %19)
  store i32 %201, ptr %8, align 4
  %202 = load ptr, ptr %7, align 8
  %203 = load i32, ptr %8, align 4
  %204 = load ptr, ptr %9, align 8
  %205 = load ptr, ptr %31, align 8
  %206 = load ptr, ptr %11, align 8
  %207 = load ptr, ptr %12, align 8
  %208 = load i32, ptr @hf_cba_acco_conn_persist, align 4
  %209 = call i32 @dissect_ndr_uint16(ptr noundef %202, i32 noundef %203, ptr noundef %204, ptr noundef %205, ptr noundef %206, ptr noundef %207, i32 noundef %208, ptr noundef %20)
  store i32 %209, ptr %8, align 4
  %210 = load ptr, ptr %7, align 8
  %211 = load i32, ptr %8, align 4
  %212 = load ptr, ptr %9, align 8
  %213 = load ptr, ptr %31, align 8
  %214 = load ptr, ptr %11, align 8
  %215 = load ptr, ptr %12, align 8
  %216 = load i32, ptr %22, align 4
  %217 = call i32 @dissect_dcom_indexed_HRESULT(ptr noundef %210, i32 noundef %211, ptr noundef %212, ptr noundef %213, ptr noundef %214, ptr noundef %215, ptr noundef %16, i32 noundef %216)
  store i32 %217, ptr %8, align 4
  %218 = load ptr, ptr %30, align 8
  %219 = load i32, ptr %22, align 4
  %220 = load i32, ptr %16, align 4
  %221 = call ptr @val_to_str(i32 noundef %220, ptr noundef @dcom_hresult_vals, ptr noundef @.str.259)
  call void (ptr, ptr, ...) @proto_item_append_text(ptr noundef %218, ptr noundef @.str.269, i32 noundef %219, ptr noundef %221)
  %222 = load ptr, ptr %30, align 8
  %223 = load i32, ptr %8, align 4
  %224 = load i32, ptr %21, align 4
  %225 = sub i32 %223, %224
  call void @proto_item_set_len(ptr noundef %222, i32 noundef %225)
  %226 = load i32, ptr %22, align 4
  %227 = add i32 %226, 1
  store i32 %227, ptr %22, align 4
  call void @llvm.lifetime.end.p0(i64 8, ptr %31) #12
  call void @llvm.lifetime.end.p0(i64 8, ptr %30) #12
  br label %63, !llvm.loop !20

228:                                              ; preds = %63
  br label %229

229:                                              ; preds = %228, %6
  %230 = load ptr, ptr %7, align 8
  %231 = load i32, ptr %23, align 4
  %232 = load ptr, ptr %9, align 8
  %233 = load ptr, ptr %10, align 8
  %234 = load ptr, ptr %11, align 8
  %235 = load ptr, ptr %12, align 8
  %236 = call i32 @dissect_dcom_HRESULT(ptr noundef %230, i32 noundef %231, ptr noundef %232, ptr noundef %233, ptr noundef %234, ptr noundef %235, ptr noundef %16)
  store i32 %236, ptr %23, align 4
  %237 = load ptr, ptr %9, align 8
  %238 = getelementptr inbounds nuw %struct._packet_info, ptr %237, i32 0, i32 1
  %239 = load ptr, ptr %238, align 8
  %240 = load i32, ptr %16, align 4
  %241 = call ptr @val_to_str(i32 noundef %240, ptr noundef @dcom_hresult_vals, ptr noundef @.str.259)
  call void (ptr, i32, ptr, ...) @col_append_fstr(ptr noundef %239, i32 noundef 25, ptr noundef @.str.261, ptr noundef %241)
  %242 = load i32, ptr %23, align 4
  call void @llvm.lifetime.end.p0(i64 4, ptr %29) #12
  call void @llvm.lifetime.end.p0(i64 1000, ptr %28) #12
  call void @llvm.lifetime.end.p0(i64 4, ptr %27) #12
  call void @llvm.lifetime.end.p0(i64 1000, ptr %26) #12
  call void @llvm.lifetime.end.p0(i64 4, ptr %25) #12
  call void @llvm.lifetime.end.p0(i64 1000, ptr %24) #12
  call void @llvm.lifetime.end.p0(i64 4, ptr %23) #12
  call void @llvm.lifetime.end.p0(i64 4, ptr %22) #12
  call void @llvm.lifetime.end.p0(i64 4, ptr %21) #12
  call void @llvm.lifetime.end.p0(i64 2, ptr %20) #12
  call void @llvm.lifetime.end.p0(i64 1, ptr %19) #12
  call void @llvm.lifetime.end.p0(i64 2, ptr %18) #12
  call void @llvm.lifetime.end.p0(i64 2, ptr %17) #12
  call void @llvm.lifetime.end.p0(i64 4, ptr %16) #12
  call void @llvm.lifetime.end.p0(i64 4, ptr %15) #12
  call void @llvm.lifetime.end.p0(i64 4, ptr %14) #12
  call void @llvm.lifetime.end.p0(i64 4, ptr %13) #12
  ret i32 %242
}