; Function Attrs: null_pointer_is_valid sspstrong uwtable
define internal i32 @dissect_ICBAAccoMgt2_GetConsConnections_resp(ptr noundef %0, i32 noundef %1, ptr noundef %2, ptr noundef %3, ptr noundef %4, ptr noundef %5) #0 {
  %7 = alloca i32, align 4
  %8 = alloca i32, align 4
  %9 = alloca i32, align 4
  %10 = alloca i16, align 2
  %11 = alloca i16, align 2
  %12 = alloca i8, align 1
  %13 = alloca i16, align 2
  %14 = alloca [1000 x i8], align 16
  %15 = alloca [1000 x i8], align 16
  %16 = alloca [1000 x i8], align 16
  call void @llvm.lifetime.start.p0(i64 4, ptr nonnull %7) #12
  call void @llvm.lifetime.start.p0(i64 4, ptr nonnull %8) #12
  call void @llvm.lifetime.start.p0(i64 4, ptr nonnull %9) #12
  call void @llvm.lifetime.start.p0(i64 2, ptr nonnull %10) #12
  call void @llvm.lifetime.start.p0(i64 2, ptr nonnull %11) #12
  call void @llvm.lifetime.start.p0(i64 1, ptr nonnull %12) #12
  call void @llvm.lifetime.start.p0(i64 2, ptr nonnull %13) #12
  call void @llvm.lifetime.start.p0(i64 1000, ptr nonnull %14) #12
  call void @llvm.memset.p0.i64(ptr noundef nonnull align 16 dereferenceable(1000) %14, i8 0, i64 1000, i1 false)
  call void @llvm.lifetime.start.p0(i64 1000, ptr nonnull %15) #12
  call void @llvm.memset.p0.i64(ptr noundef nonnull align 16 dereferenceable(1000) %15, i8 0, i64 1000, i1 false)
  call void @llvm.lifetime.start.p0(i64 1000, ptr nonnull %16) #12
  call void @llvm.memset.p0.i64(ptr noundef nonnull align 16 dereferenceable(1000) %16, i8 0, i64 1000, i1 false)
  %17 = tail call i32 @dissect_dcom_that(ptr noundef %0, i32 noundef %1, ptr noundef %2, ptr noundef %3, ptr noundef %4, ptr noundef %5)
  %18 = call i32 @dissect_dcom_dcerpc_pointer(ptr noundef %0, i32 noundef %17, ptr noundef %2, ptr noundef %3, ptr noundef %4, ptr noundef %5, ptr noundef nonnull %8)
  %19 = load i32, ptr %8, align 4
  %.not = icmp eq i32 %19, 0
  br i1 %.not, label %.loopexit, label %20

20:                                               ; preds = %6
  %21 = load i32, ptr @hf_cba_acco_count, align 4
  %22 = call i32 @dissect_ndr_uint32(ptr noundef %0, i32 noundef %18, ptr noundef %2, ptr noundef %3, ptr noundef %4, ptr noundef %5, i32 noundef %21, ptr noundef nonnull %7)
  %23 = load i32, ptr %7, align 4
  %24 = shl i32 %23, 5
  %25 = add i32 %24, %22
  %.not136142 = icmp eq i32 %23, 0
  br i1 %.not136142, label %.loopexit, label %.lr.ph

.lr.ph:                                           ; preds = %20, %60
  %.in = phi i32 [ %26, %60 ], [ %23, %20 ]
  %.0145 = phi i32 [ %69, %60 ], [ %22, %20 ]
  %.0134144 = phi i32 [ %73, %60 ], [ 1, %20 ]
  %.1143 = phi i32 [ %.6, %60 ], [ %25, %20 ]
  %26 = add i32 %.in, -1
  %27 = load i32, ptr @hf_cba_getconsconnout, align 4
  %28 = call ptr @proto_tree_add_item(ptr noundef %3, i32 noundef %27, ptr noundef %0, i32 noundef %.0145, i32 noundef 0, i32 noundef 0)
  %29 = load i32, ptr @ett_cba_getconnectionout, align 4
  %30 = call ptr @proto_item_add_subtree(ptr noundef %28, i32 noundef %29)
  %31 = call i32 @dissect_dcom_dcerpc_pointer(ptr noundef %0, i32 noundef %.0145, ptr noundef %2, ptr noundef %30, ptr noundef %4, ptr noundef %5, ptr noundef nonnull %8)
  %32 = load i32, ptr %8, align 4
  %.not137 = icmp eq i32 %32, 0
  br i1 %.not137, label %36, label %33

33:                                               ; preds = %.lr.ph
  %34 = load i32, ptr @hf_cba_acco_conn_provider, align 4
  %35 = call i32 @dissect_dcom_LPWSTR(ptr noundef %0, i32 noundef %.1143, ptr noundef %2, ptr noundef %30, ptr noundef %4, ptr noundef %5, i32 noundef %34, ptr noundef nonnull %14, i32 noundef 1000)
  br label %36

36:                                               ; preds = %33, %.lr.ph
  %.2 = phi i32 [ %35, %33 ], [ %.1143, %.lr.ph ]
  %37 = call i32 @dissect_dcom_dcerpc_pointer(ptr noundef %0, i32 noundef %31, ptr noundef %2, ptr noundef %30, ptr noundef %4, ptr noundef %5, ptr noundef nonnull %8)
  %38 = load i32, ptr %8, align 4
  %.not138 = icmp eq i32 %38, 0
  br i1 %.not138, label %42, label %39

39:                                               ; preds = %36
  %40 = load i32, ptr @hf_cba_acco_conn_provider_item, align 4
  %41 = call i32 @dissect_dcom_LPWSTR(ptr noundef %0, i32 noundef %.2, ptr noundef %2, ptr noundef %30, ptr noundef %4, ptr noundef %5, i32 noundef %40, ptr noundef nonnull %15, i32 noundef 1000)
  br label %42

42:                                               ; preds = %39, %36
  %.3 = phi i32 [ %41, %39 ], [ %.2, %36 ]
  %43 = call i32 @dissect_dcom_dcerpc_pointer(ptr noundef %0, i32 noundef %37, ptr noundef %2, ptr noundef %30, ptr noundef %4, ptr noundef %5, ptr noundef nonnull %8)
  %44 = load i32, ptr %8, align 4
  %.not139 = icmp eq i32 %44, 0
  br i1 %.not139, label %48, label %45

45:                                               ; preds = %42
  %46 = load i32, ptr @hf_cba_acco_conn_consumer_item, align 4
  %47 = call i32 @dissect_dcom_LPWSTR(ptr noundef %0, i32 noundef %.3, ptr noundef %2, ptr noundef %30, ptr noundef %4, ptr noundef %5, i32 noundef %46, ptr noundef nonnull %16, i32 noundef 1000)
  br label %48

48:                                               ; preds = %45, %42
  %.4 = phi i32 [ %47, %45 ], [ %.3, %42 ]
  %49 = call i32 @dissect_dcom_dcerpc_pointer(ptr noundef %0, i32 noundef %43, ptr noundef %2, ptr noundef %30, ptr noundef %4, ptr noundef %5, ptr noundef nonnull %8)
  %50 = load i32, ptr %8, align 4
  %.not140 = icmp eq i32 %50, 0
  br i1 %.not140, label %54, label %51

51:                                               ; preds = %48
  %52 = load i32, ptr @hf_cba_acco_conn_substitute, align 4
  %53 = call i32 @dissect_dcom_VARIANT(ptr noundef %0, i32 noundef %.4, ptr noundef %2, ptr noundef %30, ptr noundef %4, ptr noundef %5, i32 noundef %52)
  br label %54

54:                                               ; preds = %51, %48
  %.5 = phi i32 [ %53, %51 ], [ %.4, %48 ]
  %55 = call i32 @dissect_dcom_dcerpc_pointer(ptr noundef %0, i32 noundef %49, ptr noundef %2, ptr noundef %30, ptr noundef %4, ptr noundef %5, ptr noundef nonnull %8)
  %56 = load i32, ptr %8, align 4
  %.not141 = icmp eq i32 %56, 0
  br i1 %.not141, label %60, label %57

57:                                               ; preds = %54
  %58 = load i32, ptr @hf_cba_acco_conn_epsilon, align 4
  %59 = call i32 @dissect_dcom_VARIANT(ptr noundef %0, i32 noundef %.5, ptr noundef %2, ptr noundef %30, ptr noundef %4, ptr noundef %5, i32 noundef %58)
  br label %60

60:                                               ; preds = %57, %54
  %.6 = phi i32 [ %59, %57 ], [ %.5, %54 ]
  %61 = load i32, ptr @hf_cba_acco_conn_qos_type, align 4
  %62 = call i32 @dissect_ndr_uint16(ptr noundef %0, i32 noundef %55, ptr noundef %2, ptr noundef %30, ptr noundef %4, ptr noundef %5, i32 noundef %61, ptr noundef nonnull %10)
  %63 = load i32, ptr @hf_cba_acco_conn_qos_value, align 4
  %64 = call i32 @dissect_ndr_uint16(ptr noundef %0, i32 noundef %62, ptr noundef %2, ptr noundef %30, ptr noundef %4, ptr noundef %5, i32 noundef %63, ptr noundef nonnull %11)
  %65 = load i32, ptr @hf_cba_acco_conn_state, align 4
  %66 = call i32 @dissect_ndr_uint8(ptr noundef %0, i32 noundef %64, ptr noundef %2, ptr noundef %30, ptr noundef %4, ptr noundef %5, i32 noundef %65, ptr noundef nonnull %12)
  %67 = load i32, ptr @hf_cba_acco_conn_persist, align 4
  %68 = call i32 @dissect_ndr_uint16(ptr noundef %0, i32 noundef %66, ptr noundef %2, ptr noundef %30, ptr noundef %4, ptr noundef %5, i32 noundef %67, ptr noundef nonnull %13)
  %69 = call i32 @dissect_dcom_indexed_HRESULT(ptr noundef %0, i32 noundef %68, ptr noundef %2, ptr noundef %30, ptr noundef %4, ptr noundef %5, ptr noundef nonnull %9, i32 noundef %.0134144)
  %70 = load i32, ptr %9, align 4
  %71 = call ptr @val_to_str(i32 noundef %70, ptr noundef nonnull @dcom_hresult_vals, ptr noundef nonnull @.str.259)
  call void (ptr, ptr, ...) @proto_item_append_text(ptr noundef %28, ptr noundef nonnull @.str.269, i32 noundef %.0134144, ptr noundef %71)
  %72 = sub i32 %69, %.0145
  call void @proto_item_set_len(ptr noundef %28, i32 noundef %72)
  %73 = add i32 %.0134144, 1
  %.not136 = icmp eq i32 %26, 0
  br i1 %.not136, label %.loopexit, label %.lr.ph, !llvm.loop !21

.loopexit:                                        ; preds = %60, %20, %6
  %.0135 = phi i32 [ %18, %6 ], [ %25, %20 ], [ %.6, %60 ]
  %74 = call i32 @dissect_dcom_HRESULT(ptr noundef %0, i32 noundef %.0135, ptr noundef %2, ptr noundef %3, ptr noundef %4, ptr noundef %5, ptr noundef nonnull %9)
  %75 = getelementptr inbounds nuw i8, ptr %2, i64 8
  %76 = load ptr, ptr %75, align 8
  %77 = load i32, ptr %9, align 4
  %78 = call ptr @val_to_str(i32 noundef %77, ptr noundef nonnull @dcom_hresult_vals, ptr noundef nonnull @.str.259)
  call void (ptr, i32, ptr, ...) @col_append_fstr(ptr noundef %76, i32 noundef 25, ptr noundef nonnull @.str.261, ptr noundef %78)
  call void @llvm.lifetime.end.p0(i64 1000, ptr nonnull %16) #12
  call void @llvm.lifetime.end.p0(i64 1000, ptr nonnull %15) #12
  call void @llvm.lifetime.end.p0(i64 1000, ptr nonnull %14) #12
  call void @llvm.lifetime.end.p0(i64 2, ptr nonnull %13) #12
  call void @llvm.lifetime.end.p0(i64 1, ptr nonnull %12) #12
  call void @llvm.lifetime.end.p0(i64 2, ptr nonnull %11) #12
  call void @llvm.lifetime.end.p0(i64 2, ptr nonnull %10) #12
  call void @llvm.lifetime.end.p0(i64 4, ptr nonnull %9) #12
  call void @llvm.lifetime.end.p0(i64 4, ptr nonnull %8) #12
  call void @llvm.lifetime.end.p0(i64 4, ptr nonnull %7) #12
  ret i32 %74
}